target datalayout = "e-m:e-p270:32:32-p271:32:32-p272:64:64-i64:64-i128:128-f80:128-n8:16:32:64-S128"
target triple = "x86_64-pc-linux-gnu"

%"struct.Assimp::COB::ChunkInfo" = type { i32, i32, i32, i32 }

@.str.62 = private unnamed_addr constant [5 x i8] c"Chan\00", align 1

; Function Attrs: mustprogress uwtable
define hidden void @_ZN6Assimp11COBImporter14ReadChan_AsciiERNS_3COB5SceneERNS_12LineSplitterERKNS1_9ChunkInfoE(ptr noundef nonnull align 8 dereferenceable(72) %0, ptr noundef nonnull align 8 dereferenceable(160) %1, ptr noundef nonnull align 8 dereferenceable(59) %2, ptr noundef nonnull align 4 dereferenceable(16) %3) #1 align 2 {
  %5 = alloca ptr, align 8
  %6 = alloca ptr, align 8
  %7 = alloca ptr, align 8
  %8 = alloca ptr, align 8
  store ptr %0, ptr %5, align 8
  store ptr %1, ptr %6, align 8
  store ptr %2, ptr %7, align 8
  store ptr %3, ptr %8, align 8
  %9 = load ptr, ptr %5, align 8
  %10 = load ptr, ptr %8, align 8
  %11 = getelementptr inbounds nuw %"struct.Assimp::COB::ChunkInfo", ptr %10, i32 0, i32 2
  %12 = load i32, ptr %11, align 4
  %13 = icmp ugt i32 %12, 8
  br i1 %13, label %14, label %17

14:                                               ; preds = %4
  %15 = load ptr, ptr %7, align 8
  %16 = load ptr, ptr %8, align 8
  call void @_ZN6Assimp11COBImporter22UnsupportedChunk_AsciiERNS_12LineSplitterERKNS_3COB9ChunkInfoEPKc(ptr noundef nonnull align 8 dereferenceable(72) %9, ptr noundef nonnull align 8 dereferenceable(59) %15, ptr noundef nonnull align 4 dereferenceable(16) %16, ptr noundef @.str.62)
  br label %17

17:                                               ; preds = %14, %4
  ret void
}