; Function Attrs: mustprogress uwtable
define hidden void @_ZN6Assimp11COBImporter14ReadChan_AsciiERNS_3COB5SceneERNS_12LineSplitterERKNS1_9ChunkInfoE(ptr noundef nonnull readnone align 8 captures(none) dereferenceable(72) %0, ptr noundef nonnull readnone align 8 captures(none) dereferenceable(160) %1, ptr noundef nonnull align 8 captures(none) dereferenceable(59) %2, ptr noundef nonnull readonly align 4 captures(none) dereferenceable(16) %3) local_unnamed_addr #0 align 2 {
  %5 = getelementptr inbounds nuw i8, ptr %3, i64 8
  %6 = load i32, ptr %5, align 4
  %7 = icmp ugt i32 %6, 8
  br i1 %7, label %8, label %9

8:                                                ; preds = %4
  tail call void @_ZN6Assimp11COBImporter22UnsupportedChunk_AsciiERNS_12LineSplitterERKNS_3COB9ChunkInfoEPKc(ptr nonnull align 8 poison, ptr noundef nonnull align 8 dereferenceable(59) %2, ptr noundef nonnull align 4 dereferenceable(16) %3, ptr noundef nonnull @.str.62)
  br label %9

9:                                                ; preds = %8, %4
  ret void
}